; ModuleID = 'bench/git/original/strlcpy.ll'
source_filename = "bench/git/original/strlcpy.ll"
target datalayout = "e-m:e-p270:32:32-p271:32:32-p272:64:64-i64:64-i128:128-f80:128-n8:16:32:64-S128"
target triple = "x86_64-pc-linux-gnu"

; Function Attrs: mustprogress nofree nounwind willreturn memory(argmem: readwrite) uwtable
define dso_local i64 @gitstrlcpy(ptr noundef writeonly captures(none) %0, ptr noundef readonly captures(none) %1, i64 noundef %2) local_unnamed_addr #0 {
  %4 = tail call i64 @strlen(ptr noundef nonnull dereferenceable(1) %1) #3
  %.not = icmp eq i64 %2, 0
  br i1 %.not, label %9, label %5

5:                                                ; preds = %3
  %.not11 = icmp ult i64 %4, %2
  %6 = add i64 %2, -1
  %7 = select i1 %.not11, i64 %4, i64 %6
  tail call void @llvm.memcpy.p0.p0.i64(ptr align 1 %0, ptr nonnull align 1 %1, i64 %7, i1 false)
  %8 = getelementptr inbounds nuw i8, ptr %0, i64 %7
  store i8 0, ptr %8, align 1, !tbaa !4
  br label %9

9:                                                ; preds = %5, %3
  ret i64 %4
}

; Function Attrs: mustprogress nofree nounwind willreturn memory(argmem: read)
declare i64 @strlen(ptr noundef captures(none)) local_unnamed_addr #1

; Function Attrs: mustprogress nocallback nofree nounwind willreturn memory(argmem: readwrite)
declare void @llvm.memcpy.p0.p0.i64(ptr noalias writeonly captures(none), ptr noalias readonly captures(none), i64, i1 immarg) #2


!llvm.module.flags = !{!0, !1, !2, !3}

!0 = !{i32 1, !"wchar_size", i32 4}
!1 = !{i32 8, !"PIC Level", i32 2}
!2 = !{i32 7, !"PIE Level", i32 2}
!3 = !{i32 7, !"uwtable", i32 2}
!4 = !{!5, !5, i64 0}
!5 = !{!"omnipotent char", !6, i64 0}
!6 = !{!"Simple C/C++ TBAA"}
